target datalayout = "e-m:e-p270:32:32-p271:32:32-p272:64:64-i64:64-i128:128-f80:128-n8:16:32:64-S128"
target triple = "x86_64-unknown-linux-gnu"

%struct.built_in_curve = type { i32, [8 x i8], i8, ptr, ptr }
%struct.cbb_st = type { ptr, ptr, i64, i8, i8, i8 }

@.str = private unnamed_addr constant [123 x i8] c"generated/home/dtcxzyw/WorkSpace/Projects/compilers/llvm-opt-benchmark/bench/libquic/libquic/boringssl/crypto/ec/ec_asn1.c\00", align 1
@OPENSSL_built_in_curves = external constant [0 x %struct.built_in_curve], align 8

; Function Attrs: nounwind uwtable
define hidden i32 @EC_KEY_marshal_curve_name(ptr noundef %cbb, ptr noundef %group) #0 {
entry:
  %retval = alloca i32, align 4
  %cbb.addr = alloca ptr, align 8
  %group.addr = alloca ptr, align 8
  %nid = alloca i32, align 4
  %i = alloca i32, align 4
  %curve = alloca ptr, align 8
  %child = alloca %struct.cbb_st, align 8
  store ptr %cbb, ptr %cbb.addr, align 8
  store ptr %group, ptr %group.addr, align 8
  %0 = load ptr, ptr %group.addr, align 8
  %call = call i32 @EC_GROUP_get_curve_name(ptr noundef %0)
  store i32 %call, ptr %nid, align 4
  %1 = load i32, ptr %nid, align 4
  %cmp = icmp eq i32 %1, 0
  br i1 %cmp, label %if.then, label %if.end

if.then:                                          ; preds = %entry
  call void @ERR_put_error(i32 noundef 15, i32 noundef 0, i32 noundef 123, ptr noundef @.str, i32 noundef 350)
  store i32 0, ptr %retval, align 4
  br label %return

if.end:                                           ; preds = %entry
  store i32 0, ptr %i, align 4
  br label %for.cond

for.cond:                                         ; preds = %for.inc, %if.end
  %2 = load i32, ptr %i, align 4
  %idxprom = zext i32 %2 to i64
  %arrayidx = getelementptr inbounds [0 x %struct.built_in_curve], ptr @OPENSSL_built_in_curves, i64 0, i64 %idxprom
  %nid1 = getelementptr inbounds %struct.built_in_curve, ptr %arrayidx, i32 0, i32 0
  %3 = load i32, ptr %nid1, align 8
  %cmp2 = icmp ne i32 %3, 0
  br i1 %cmp2, label %for.body, label %for.end

for.body:                                         ; preds = %for.cond
  %4 = load i32, ptr %i, align 4
  %idxprom3 = zext i32 %4 to i64
  %arrayidx4 = getelementptr inbounds [0 x %struct.built_in_curve], ptr @OPENSSL_built_in_curves, i64 0, i64 %idxprom3
  store ptr %arrayidx4, ptr %curve, align 8
  %5 = load ptr, ptr %curve, align 8
  %nid5 = getelementptr inbounds %struct.built_in_curve, ptr %5, i32 0, i32 0
  %6 = load i32, ptr %nid5, align 8
  %7 = load i32, ptr %nid, align 4
  %cmp6 = icmp eq i32 %6, %7
  br i1 %cmp6, label %if.then7, label %if.end13

if.then7:                                         ; preds = %for.body
  %8 = load ptr, ptr %cbb.addr, align 8
  %call8 = call i32 @CBB_add_asn1(ptr noundef %8, ptr noundef %child, i8 noundef zeroext 6)
  %tobool = icmp ne i32 %call8, 0
  br i1 %tobool, label %land.lhs.true, label %land.end

land.lhs.true:                                    ; preds = %if.then7
  %9 = load ptr, ptr %curve, align 8
  %oid = getelementptr inbounds %struct.built_in_curve, ptr %9, i32 0, i32 1
  %arraydecay = getelementptr inbounds [8 x i8], ptr %oid, i64 0, i64 0
  %10 = load ptr, ptr %curve, align 8
  %oid_len = getelementptr inbounds %struct.built_in_curve, ptr %10, i32 0, i32 2
  %11 = load i8, ptr %oid_len, align 4
  %conv = zext i8 %11 to i64
  %call9 = call i32 @CBB_add_bytes(ptr noundef %child, ptr noundef %arraydecay, i64 noundef %conv)
  %tobool10 = icmp ne i32 %call9, 0
  br i1 %tobool10, label %land.rhs, label %land.end

land.rhs:                                         ; preds = %land.lhs.true
  %12 = load ptr, ptr %cbb.addr, align 8
  %call11 = call i32 @CBB_flush(ptr noundef %12)
  %tobool12 = icmp ne i32 %call11, 0
  br label %land.end

land.end:                                         ; preds = %land.rhs, %land.lhs.true, %if.then7
  %13 = phi i1 [ false, %land.lhs.true ], [ false, %if.then7 ], [ %tobool12, %land.rhs ]
  %land.ext = zext i1 %13 to i32
  store i32 %land.ext, ptr %retval, align 4
  br label %return

if.end13:                                         ; preds = %for.body
  br label %for.inc

for.inc:                                          ; preds = %if.end13
  %14 = load i32, ptr %i, align 4
  %inc = add i32 %14, 1
  store i32 %inc, ptr %i, align 4
  br label %for.cond, !llvm.loop !9

for.end:                                          ; preds = %for.cond
  call void @ERR_put_error(i32 noundef 15, i32 noundef 0, i32 noundef 123, ptr noundef @.str, i32 noundef 365)
  store i32 0, ptr %retval, align 4
  br label %return

return:                                           ; preds = %for.end, %land.end, %if.then
  %15 = load i32, ptr %retval, align 4
  ret i32 %15
}