; Function Attrs: nounwind uwtable
define hidden range(i32 0, 2) i32 @EC_KEY_marshal_curve_name(ptr noundef %cbb, ptr noundef %group) local_unnamed_addr #0 {
entry:
  %child = alloca %struct.cbb_st, align 8
  %call = tail call i32 @EC_GROUP_get_curve_name(ptr noundef %group) #7
  %cmp = icmp eq i32 %call, 0
  br i1 %cmp, label %if.then, label %for.cond.preheader

for.cond.preheader:                               ; preds = %entry
  %0 = load i32, ptr @OPENSSL_built_in_curves, align 8
  %cmp2.not8 = icmp eq i32 %0, 0
  br i1 %cmp2.not8, label %for.end, label %for.body.preheader

for.body.preheader:                               ; preds = %for.cond.preheader
  %cmp614 = icmp eq i32 %0, %call
  br i1 %cmp614, label %if.then7, label %for.cond

if.then:                                          ; preds = %entry
  tail call void @ERR_put_error(i32 noundef 15, i32 noundef 0, i32 noundef 123, ptr noundef nonnull @.str, i32 noundef 350) #7
  br label %return

for.cond:                                         ; preds = %for.body.preheader, %for.body
  %i.0915 = phi i32 [ %inc, %for.body ], [ 0, %for.body.preheader ]
  %inc = add i32 %i.0915, 1
  %idxprom = zext i32 %inc to i64
  %arrayidx = getelementptr inbounds nuw [0 x %struct.built_in_curve], ptr @OPENSSL_built_in_curves, i64 0, i64 %idxprom
  %1 = load i32, ptr %arrayidx, align 8
  %cmp2.not = icmp eq i32 %1, 0
  br i1 %cmp2.not, label %for.end, label %for.body, !llvm.loop !11

for.body:                                         ; preds = %for.cond
  %cmp6 = icmp eq i32 %1, %call
  br i1 %cmp6, label %if.then7, label %for.cond, !llvm.loop !11

if.then7:                                         ; preds = %for.body, %for.body.preheader
  %arrayidx10.lcssa = phi ptr [ @OPENSSL_built_in_curves, %for.body.preheader ], [ %arrayidx, %for.body ]
  %call8 = call i32 @CBB_add_asn1(ptr noundef %cbb, ptr noundef nonnull %child, i8 noundef zeroext 6) #7
  %tobool.not = icmp eq i32 %call8, 0
  br i1 %tobool.not, label %return, label %land.lhs.true

land.lhs.true:                                    ; preds = %if.then7
  %oid = getelementptr inbounds nuw i8, ptr %arrayidx10.lcssa, i64 4
  %oid_len = getelementptr inbounds nuw i8, ptr %arrayidx10.lcssa, i64 12
  %2 = load i8, ptr %oid_len, align 4
  %conv = zext i8 %2 to i64
  %call9 = call i32 @CBB_add_bytes(ptr noundef nonnull %child, ptr noundef nonnull %oid, i64 noundef %conv) #7
  %tobool10.not = icmp eq i32 %call9, 0
  br i1 %tobool10.not, label %return, label %land.rhs

land.rhs:                                         ; preds = %land.lhs.true
  %call11 = call i32 @CBB_flush(ptr noundef %cbb) #7
  %tobool12 = icmp ne i32 %call11, 0
  %3 = zext i1 %tobool12 to i32
  br label %return

for.end:                                          ; preds = %for.cond, %for.cond.preheader
  tail call void @ERR_put_error(i32 noundef 15, i32 noundef 0, i32 noundef 123, ptr noundef nonnull @.str, i32 noundef 365) #7
  br label %return

return:                                           ; preds = %if.then7, %land.lhs.true, %land.rhs, %for.end, %if.then
  %retval.0 = phi i32 [ 0, %if.then ], [ 0, %for.end ], [ 0, %land.lhs.true ], [ 0, %if.then7 ], [ %3, %land.rhs ]
  ret i32 %retval.0
}